target datalayout = "e-m:e-p270:32:32-p271:32:32-p272:64:64-i64:64-i128:128-f80:128-n8:16:32:64-S128"
target triple = "x86_64-unknown-linux-gnu"

%"class.rocksdb::Arena" = type { %"class.rocksdb::Allocator", [8 x i8], [2048 x i8], i64, %"class.std::deque", %"class.std::deque.0", i64, ptr, ptr, i64, i64, i64, ptr }
%"class.rocksdb::Allocator" = type { ptr }
%"class.std::deque" = type { %"class.std::_Deque_base" }
%"class.std::_Deque_base" = type { %"struct.std::_Deque_base<std::unique_ptr<char[]>, std::allocator<std::unique_ptr<char[]>>>::_Deque_impl" }
%"struct.std::_Deque_base<std::unique_ptr<char[]>, std::allocator<std::unique_ptr<char[]>>>::_Deque_impl" = type { %"struct.std::_Deque_base<std::unique_ptr<char[]>, std::allocator<std::unique_ptr<char[]>>>::_Deque_impl_data" }
%"struct.std::_Deque_base<std::unique_ptr<char[]>, std::allocator<std::unique_ptr<char[]>>>::_Deque_impl_data" = type { ptr, i64, %"struct.std::_Deque_iterator", %"struct.std::_Deque_iterator" }
%"struct.std::_Deque_iterator" = type { ptr, ptr, ptr, ptr }
%"class.std::deque.0" = type { %"class.std::_Deque_base.1" }
%"class.std::_Deque_base.1" = type { %"struct.std::_Deque_base<rocksdb::MemMapping, std::allocator<rocksdb::MemMapping>>::_Deque_impl" }
%"struct.std::_Deque_base<rocksdb::MemMapping, std::allocator<rocksdb::MemMapping>>::_Deque_impl" = type { %"struct.std::_Deque_base<rocksdb::MemMapping, std::allocator<rocksdb::MemMapping>>::_Deque_impl_data" }
%"struct.std::_Deque_base<rocksdb::MemMapping, std::allocator<rocksdb::MemMapping>>::_Deque_impl_data" = type { ptr, i64, %"struct.std::_Deque_iterator.5", %"struct.std::_Deque_iterator.5" }
%"struct.std::_Deque_iterator.5" = type { ptr, ptr, ptr, ptr }
%"class.std::__cxx11::basic_string" = type { %"struct.std::__cxx11::basic_string<char>::_Alloc_hider", i64, %union.anon }
%"struct.std::__cxx11::basic_string<char>::_Alloc_hider" = type { ptr }
%union.anon = type { i64, [8 x i8] }

@.str = private unnamed_addr constant [61 x i8] c"[%s:121] AllocateAligned fail to allocate huge TLB pages: %s\00", align 1
@.str.1 = private unnamed_addr constant [109 x i8] c"generated/home/dtcxzyw/WorkSpace/Projects/compilers/llvm-opt-benchmark/bench/rocksdb/rocksdb/memory/arena.cc\00", align 1

; Function Attrs: mustprogress uwtable
define noundef ptr @_ZN7rocksdb5Arena16AllocateFallbackEmb(ptr noundef nonnull align 16 dereferenceable(2288) %this, i64 noundef %bytes, i1 noundef zeroext %aligned) #0 align 2 {
entry:
  %retval = alloca ptr, align 8
  %this.addr = alloca ptr, align 8
  %bytes.addr = alloca i64, align 8
  %aligned.addr = alloca i8, align 1
  %size = alloca i64, align 8
  %block_head = alloca ptr, align 8
  store ptr %this, ptr %this.addr, align 8
  store i64 %bytes, ptr %bytes.addr, align 8
  %frombool = zext i1 %aligned to i8
  store i8 %frombool, ptr %aligned.addr, align 1
  %this1 = load ptr, ptr %this.addr, align 8
  %0 = load i64, ptr %bytes.addr, align 8
  %kBlockSize = getelementptr inbounds %"class.rocksdb::Arena", ptr %this1, i32 0, i32 3
  %1 = load i64, ptr %kBlockSize, align 16
  %div = udiv i64 %1, 4
  %cmp = icmp ugt i64 %0, %div
  br i1 %cmp, label %if.then, label %if.end

if.then:                                          ; preds = %entry
  %irregular_block_num = getelementptr inbounds %"class.rocksdb::Arena", ptr %this1, i32 0, i32 6
  %2 = load i64, ptr %irregular_block_num, align 8
  %inc = add i64 %2, 1
  store i64 %inc, ptr %irregular_block_num, align 8
  %3 = load i64, ptr %bytes.addr, align 8
  %call = call noundef ptr @_ZN7rocksdb5Arena16AllocateNewBlockEm(ptr noundef nonnull align 16 dereferenceable(2288) %this1, i64 noundef %3)
  store ptr %call, ptr %retval, align 8
  br label %return

if.end:                                           ; preds = %entry
  store i64 0, ptr %size, align 8
  store ptr null, ptr %block_head, align 8
  %hugetlb_size_ = getelementptr inbounds %"class.rocksdb::Arena", ptr %this1, i32 0, i32 10
  %4 = load i64, ptr %hugetlb_size_, align 8
  %cmp2 = icmp ugt i64 %4, 0
  br i1 %cmp2, label %if.then3, label %if.end6

if.then3:                                         ; preds = %if.end
  %hugetlb_size_4 = getelementptr inbounds %"class.rocksdb::Arena", ptr %this1, i32 0, i32 10
  %5 = load i64, ptr %hugetlb_size_4, align 8
  store i64 %5, ptr %size, align 8
  %6 = load i64, ptr %size, align 8
  %call5 = call noundef ptr @_ZN7rocksdb5Arena20AllocateFromHugePageEm(ptr noundef nonnull align 16 dereferenceable(2288) %this1, i64 noundef %6)
  store ptr %call5, ptr %block_head, align 8
  br label %if.end6

if.end6:                                          ; preds = %if.then3, %if.end
  %7 = load ptr, ptr %block_head, align 8
  %tobool = icmp ne ptr %7, null
  br i1 %tobool, label %if.end10, label %if.then7

if.then7:                                         ; preds = %if.end6
  %kBlockSize8 = getelementptr inbounds %"class.rocksdb::Arena", ptr %this1, i32 0, i32 3
  %8 = load i64, ptr %kBlockSize8, align 16
  store i64 %8, ptr %size, align 8
  %9 = load i64, ptr %size, align 8
  %call9 = call noundef ptr @_ZN7rocksdb5Arena16AllocateNewBlockEm(ptr noundef nonnull align 16 dereferenceable(2288) %this1, i64 noundef %9)
  store ptr %call9, ptr %block_head, align 8
  br label %if.end10

if.end10:                                         ; preds = %if.then7, %if.end6
  %10 = load i64, ptr %size, align 8
  %11 = load i64, ptr %bytes.addr, align 8
  %sub = sub i64 %10, %11
  %alloc_bytes_remaining_ = getelementptr inbounds %"class.rocksdb::Arena", ptr %this1, i32 0, i32 9
  store i64 %sub, ptr %alloc_bytes_remaining_, align 16
  %12 = load i8, ptr %aligned.addr, align 1
  %tobool11 = trunc i8 %12 to i1
  br i1 %tobool11, label %if.then12, label %if.else

if.then12:                                        ; preds = %if.end10
  %13 = load ptr, ptr %block_head, align 8
  %14 = load i64, ptr %bytes.addr, align 8
  %add.ptr = getelementptr inbounds i8, ptr %13, i64 %14
  %aligned_alloc_ptr_ = getelementptr inbounds %"class.rocksdb::Arena", ptr %this1, i32 0, i32 8
  store ptr %add.ptr, ptr %aligned_alloc_ptr_, align 8
  %15 = load ptr, ptr %block_head, align 8
  %16 = load i64, ptr %size, align 8
  %add.ptr13 = getelementptr inbounds i8, ptr %15, i64 %16
  %unaligned_alloc_ptr_ = getelementptr inbounds %"class.rocksdb::Arena", ptr %this1, i32 0, i32 7
  store ptr %add.ptr13, ptr %unaligned_alloc_ptr_, align 16
  %17 = load ptr, ptr %block_head, align 8
  store ptr %17, ptr %retval, align 8
  br label %return

if.else:                                          ; preds = %if.end10
  %18 = load ptr, ptr %block_head, align 8
  %aligned_alloc_ptr_14 = getelementptr inbounds %"class.rocksdb::Arena", ptr %this1, i32 0, i32 8
  store ptr %18, ptr %aligned_alloc_ptr_14, align 8
  %19 = load ptr, ptr %block_head, align 8
  %20 = load i64, ptr %size, align 8
  %add.ptr15 = getelementptr inbounds i8, ptr %19, i64 %20
  %21 = load i64, ptr %bytes.addr, align 8
  %idx.neg = sub i64 0, %21
  %add.ptr16 = getelementptr inbounds i8, ptr %add.ptr15, i64 %idx.neg
  %unaligned_alloc_ptr_17 = getelementptr inbounds %"class.rocksdb::Arena", ptr %this1, i32 0, i32 7
  store ptr %add.ptr16, ptr %unaligned_alloc_ptr_17, align 16
  %unaligned_alloc_ptr_18 = getelementptr inbounds %"class.rocksdb::Arena", ptr %this1, i32 0, i32 7
  %22 = load ptr, ptr %unaligned_alloc_ptr_18, align 16
  store ptr %22, ptr %retval, align 8
  br label %return

return:                                           ; preds = %if.else, %if.then12, %if.then
  %23 = load ptr, ptr %retval, align 8
  ret ptr %23
}

; Function Attrs: mustprogress nounwind uwtable
define linkonce_odr noundef ptr @_Z23RocksLogShorterFileNamePKc(ptr noundef %file) #1 comdat {
entry:
  %file.addr = alloca ptr, align 8
  store ptr %file, ptr %file.addr, align 8
  %0 = load ptr, ptr %file.addr, align 8
  %add.ptr = getelementptr inbounds i8, ptr %0, i64 93
  ret ptr %add.ptr
}

; Function Attrs: mustprogress uwtable
define noundef ptr @_ZN7rocksdb5Arena15AllocateAlignedEmmPNS_6LoggerE(ptr noundef nonnull align 16 dereferenceable(2288) %this, i64 noundef %bytes, i64 noundef %huge_page_size, ptr noundef %logger) unnamed_addr #0 align 2 personality ptr @__gxx_personality_v0 {
entry:
  %retval = alloca ptr, align 8
  %this.addr = alloca ptr, align 8
  %bytes.addr = alloca i64, align 8
  %huge_page_size.addr = alloca i64, align 8
  %logger.addr = alloca ptr, align 8
  %reserved_size = alloca i64, align 8
  %addr = alloca ptr, align 8
  %ref.tmp = alloca %"class.std::__cxx11::basic_string", align 8
  %exn.slot = alloca ptr, align 8
  %ehselector.slot = alloca i32, align 4
  %current_mod = alloca i64, align 8
  %slop = alloca i64, align 8
  %needed = alloca i64, align 8
  %result = alloca ptr, align 8
  store ptr %this, ptr %this.addr, align 8
  store i64 %bytes, ptr %bytes.addr, align 8
  store i64 %huge_page_size, ptr %huge_page_size.addr, align 8
  store ptr %logger, ptr %logger.addr, align 8
  %this1 = load ptr, ptr %this.addr, align 8
  %hugetlb_size_ = getelementptr inbounds %"class.rocksdb::Arena", ptr %this1, i32 0, i32 10
  %0 = load i64, ptr %hugetlb_size_, align 8
  %cmp = icmp ugt i64 %0, 0
  br i1 %cmp, label %land.lhs.true, label %if.end10

land.lhs.true:                                    ; preds = %entry
  %1 = load i64, ptr %huge_page_size.addr, align 8
  %cmp2 = icmp ugt i64 %1, 0
  br i1 %cmp2, label %land.lhs.true3, label %if.end10

land.lhs.true3:                                   ; preds = %land.lhs.true
  %2 = load i64, ptr %bytes.addr, align 8
  %cmp4 = icmp ugt i64 %2, 0
  br i1 %cmp4, label %if.then, label %if.end10

if.then:                                          ; preds = %land.lhs.true3
  %3 = load i64, ptr %bytes.addr, align 8
  %sub = sub i64 %3, 1
  %4 = load i64, ptr %huge_page_size.addr, align 8
  %div = udiv i64 %sub, %4
  %add = add i64 %div, 1
  %5 = load i64, ptr %huge_page_size.addr, align 8
  %mul = mul i64 %add, %5
  store i64 %mul, ptr %reserved_size, align 8
  %6 = load i64, ptr %reserved_size, align 8
  %call = call noundef ptr @_ZN7rocksdb5Arena20AllocateFromHugePageEm(ptr noundef nonnull align 16 dereferenceable(2288) %this1, i64 noundef %6)
  store ptr %call, ptr %addr, align 8
  %7 = load ptr, ptr %addr, align 8
  %cmp5 = icmp eq ptr %7, null
  br i1 %cmp5, label %if.then6, label %if.else

if.then6:                                         ; preds = %if.then
  %8 = load ptr, ptr %logger.addr, align 8
  %call7 = call noundef ptr @_Z23RocksLogShorterFileNamePKc(ptr noundef @.str.1)
  %call8 = call ptr @__errno_location() #15
  %9 = load i32, ptr %call8, align 4
  call void @_ZN7rocksdb8errnoStrB5cxx11Ei(ptr sret(%"class.std::__cxx11::basic_string") align 8 %ref.tmp, i32 noundef %9)
  %call9 = call noundef ptr @_ZNKSt7__cxx1112basic_stringIcSt11char_traitsIcESaIcEE5c_strEv(ptr noundef nonnull align 8 dereferenceable(32) %ref.tmp) #11
  invoke void (i8, ptr, ptr, ...) @_ZN7rocksdb3LogENS_12InfoLogLevelEPNS_6LoggerEPKcz(i8 noundef zeroext 2, ptr noundef %8, ptr noundef @.str, ptr noundef %call7, ptr noundef %call9)
          to label %invoke.cont unwind label %lpad

invoke.cont:                                      ; preds = %if.then6
  call void @_ZNSt7__cxx1112basic_stringIcSt11char_traitsIcESaIcEED1Ev(ptr noundef nonnull align 8 dereferenceable(32) %ref.tmp) #11
  br label %if.end

lpad:                                             ; preds = %if.then6
  %10 = landingpad { ptr, i32 }
          cleanup
  %11 = extractvalue { ptr, i32 } %10, 0
  store ptr %11, ptr %exn.slot, align 8
  %12 = extractvalue { ptr, i32 } %10, 1
  store i32 %12, ptr %ehselector.slot, align 4
  call void @_ZNSt7__cxx1112basic_stringIcSt11char_traitsIcESaIcEED1Ev(ptr noundef nonnull align 8 dereferenceable(32) %ref.tmp) #11
  br label %eh.resume

if.else:                                          ; preds = %if.then
  %13 = load ptr, ptr %addr, align 8
  store ptr %13, ptr %retval, align 8
  br label %return

if.end:                                           ; preds = %invoke.cont
  br label %if.end10

if.end10:                                         ; preds = %if.end, %land.lhs.true3, %land.lhs.true, %entry
  %aligned_alloc_ptr_ = getelementptr inbounds %"class.rocksdb::Arena", ptr %this1, i32 0, i32 8
  %14 = load ptr, ptr %aligned_alloc_ptr_, align 8
  %15 = ptrtoint ptr %14 to i64
  %and = and i64 %15, 15
  store i64 %and, ptr %current_mod, align 8
  %16 = load i64, ptr %current_mod, align 8
  %cmp11 = icmp eq i64 %16, 0
  br i1 %cmp11, label %cond.true, label %cond.false

cond.true:                                        ; preds = %if.end10
  br label %cond.end

cond.false:                                       ; preds = %if.end10
  %17 = load i64, ptr %current_mod, align 8
  %sub12 = sub i64 16, %17
  br label %cond.end

cond.end:                                         ; preds = %cond.false, %cond.true
  %cond = phi i64 [ 0, %cond.true ], [ %sub12, %cond.false ]
  store i64 %cond, ptr %slop, align 8
  %18 = load i64, ptr %bytes.addr, align 8
  %19 = load i64, ptr %slop, align 8
  %add13 = add i64 %18, %19
  store i64 %add13, ptr %needed, align 8
  %20 = load i64, ptr %needed, align 8
  %alloc_bytes_remaining_ = getelementptr inbounds %"class.rocksdb::Arena", ptr %this1, i32 0, i32 9
  %21 = load i64, ptr %alloc_bytes_remaining_, align 16
  %cmp14 = icmp ule i64 %20, %21
  br i1 %cmp14, label %if.then15, label %if.else21

if.then15:                                        ; preds = %cond.end
  %aligned_alloc_ptr_16 = getelementptr inbounds %"class.rocksdb::Arena", ptr %this1, i32 0, i32 8
  %22 = load ptr, ptr %aligned_alloc_ptr_16, align 8
  %23 = load i64, ptr %slop, align 8
  %add.ptr = getelementptr inbounds i8, ptr %22, i64 %23
  store ptr %add.ptr, ptr %result, align 8
  %24 = load i64, ptr %needed, align 8
  %aligned_alloc_ptr_17 = getelementptr inbounds %"class.rocksdb::Arena", ptr %this1, i32 0, i32 8
  %25 = load ptr, ptr %aligned_alloc_ptr_17, align 8
  %add.ptr18 = getelementptr inbounds i8, ptr %25, i64 %24
  store ptr %add.ptr18, ptr %aligned_alloc_ptr_17, align 8
  %26 = load i64, ptr %needed, align 8
  %alloc_bytes_remaining_19 = getelementptr inbounds %"class.rocksdb::Arena", ptr %this1, i32 0, i32 9
  %27 = load i64, ptr %alloc_bytes_remaining_19, align 16
  %sub20 = sub i64 %27, %26
  store i64 %sub20, ptr %alloc_bytes_remaining_19, align 16
  br label %if.end23

if.else21:                                        ; preds = %cond.end
  %28 = load i64, ptr %bytes.addr, align 8
  %call22 = call noundef ptr @_ZN7rocksdb5Arena16AllocateFallbackEmb(ptr noundef nonnull align 16 dereferenceable(2288) %this1, i64 noundef %28, i1 noundef zeroext true)
  store ptr %call22, ptr %result, align 8
  br label %if.end23

if.end23:                                         ; preds = %if.else21, %if.then15
  %29 = load ptr, ptr %result, align 8
  store ptr %29, ptr %retval, align 8
  br label %return

return:                                           ; preds = %if.end23, %if.else
  %30 = load ptr, ptr %retval, align 8
  ret ptr %30

eh.resume:                                        ; preds = %lpad
  %exn = load ptr, ptr %exn.slot, align 8
  %sel = load i32, ptr %ehselector.slot, align 4
  %lpad.val = insertvalue { ptr, i32 } poison, ptr %exn, 0
  %lpad.val24 = insertvalue { ptr, i32 } %lpad.val, i32 %sel, 1
  resume { ptr, i32 } %lpad.val24
}