; Function Attrs: mustprogress uwtable
define noundef ptr @_ZN7rocksdb5Arena15AllocateAlignedEmmPNS_6LoggerE(ptr noundef nonnull align 16 dereferenceable(2288) %this, i64 noundef %bytes, i64 noundef %huge_page_size, ptr noundef %logger) unnamed_addr #1 align 2 personality ptr @__gxx_personality_v0 {
entry:
  %ref.tmp = alloca %"class.std::__cxx11::basic_string", align 8
  %hugetlb_size_ = getelementptr inbounds i8, ptr %this, i64 2264
  %0 = load i64, ptr %hugetlb_size_, align 8
  %cmp = icmp ne i64 %0, 0
  %cmp2 = icmp ne i64 %huge_page_size, 0
  %or.cond = and i1 %cmp2, %cmp
  %cmp4 = icmp ne i64 %bytes, 0
  %or.cond1 = and i1 %cmp4, %or.cond
  br i1 %or.cond1, label %if.then, label %if.end10

if.then:                                          ; preds = %entry
  %sub = add i64 %bytes, -1
  %div = udiv i64 %sub, %huge_page_size
  %add = add nuw i64 %div, 1
  %mul = mul i64 %add, %huge_page_size
  %call = tail call noundef ptr @_ZN7rocksdb5Arena20AllocateFromHugePageEm(ptr noundef nonnull align 16 dereferenceable(2288) %this, i64 noundef %mul)
  %cmp5 = icmp eq ptr %call, null
  br i1 %cmp5, label %if.then6, label %return

if.then6:                                         ; preds = %if.then
  %call8 = tail call ptr @__errno_location() #18
  %1 = load i32, ptr %call8, align 4
  call void @_ZN7rocksdb8errnoStrB5cxx11Ei(ptr nonnull sret(%"class.std::__cxx11::basic_string") align 8 %ref.tmp, i32 noundef %1)
  %call9 = call noundef ptr @_ZNKSt7__cxx1112basic_stringIcSt11char_traitsIcESaIcEE5c_strEv(ptr noundef nonnull align 8 dereferenceable(32) %ref.tmp) #14
  invoke void (i8, ptr, ptr, ...) @_ZN7rocksdb3LogENS_12InfoLogLevelEPNS_6LoggerEPKcz(i8 noundef zeroext 2, ptr noundef %logger, ptr noundef nonnull @.str, ptr noundef nonnull getelementptr inbounds ([109 x i8], ptr @.str.1, i64 0, i64 93), ptr noundef %call9)
          to label %invoke.cont unwind label %lpad

invoke.cont:                                      ; preds = %if.then6
  call void @_ZNSt7__cxx1112basic_stringIcSt11char_traitsIcESaIcEED1Ev(ptr noundef nonnull align 8 dereferenceable(32) %ref.tmp) #14
  br label %if.end10

lpad:                                             ; preds = %if.then6
  %2 = landingpad { ptr, i32 }
          cleanup
  call void @_ZNSt7__cxx1112basic_stringIcSt11char_traitsIcESaIcEED1Ev(ptr noundef nonnull align 8 dereferenceable(32) %ref.tmp) #14
  resume { ptr, i32 } %2

if.end10:                                         ; preds = %invoke.cont, %entry
  %aligned_alloc_ptr_ = getelementptr inbounds i8, ptr %this, i64 2248
  %3 = load ptr, ptr %aligned_alloc_ptr_, align 8
  %4 = ptrtoint ptr %3 to i64
  %and = and i64 %4, 15
  %cmp11 = icmp eq i64 %and, 0
  %sub12 = sub nuw nsw i64 16, %and
  %cond = select i1 %cmp11, i64 0, i64 %sub12
  %add13 = add i64 %cond, %bytes
  %alloc_bytes_remaining_ = getelementptr inbounds i8, ptr %this, i64 2256
  %5 = load i64, ptr %alloc_bytes_remaining_, align 16
  %cmp14.not = icmp ugt i64 %add13, %5
  br i1 %cmp14.not, label %if.else21, label %if.then15

if.then15:                                        ; preds = %if.end10
  %add.ptr = getelementptr inbounds i8, ptr %3, i64 %cond
  %add.ptr18 = getelementptr inbounds i8, ptr %3, i64 %add13
  store ptr %add.ptr18, ptr %aligned_alloc_ptr_, align 8
  %sub20 = sub i64 %5, %add13
  store i64 %sub20, ptr %alloc_bytes_remaining_, align 16
  br label %return

if.else21:                                        ; preds = %if.end10
  %kBlockSize.i = getelementptr inbounds i8, ptr %this, i64 2064
  %6 = load i64, ptr %kBlockSize.i, align 16
  %div14.i = lshr i64 %6, 2
  %cmp.i = icmp ult i64 %div14.i, %bytes
  br i1 %cmp.i, label %if.then.i, label %if.end.i

if.then.i:                                        ; preds = %if.else21
  %irregular_block_num.i = getelementptr inbounds i8, ptr %this, i64 2232
  %7 = load i64, ptr %irregular_block_num.i, align 8
  %inc.i = add i64 %7, 1
  store i64 %inc.i, ptr %irregular_block_num.i, align 8
  %call.i = call noundef ptr @_ZN7rocksdb5Arena16AllocateNewBlockEm(ptr noundef nonnull align 16 dereferenceable(2288) %this, i64 noundef %bytes)
  br label %return

if.end.i:                                         ; preds = %if.else21
  %8 = load i64, ptr %hugetlb_size_, align 8
  %cmp2.not.i = icmp eq i64 %8, 0
  br i1 %cmp2.not.i, label %if.then7.i, label %if.end6.i

if.end6.i:                                        ; preds = %if.end.i
  %call5.i = call noundef ptr @_ZN7rocksdb5Arena20AllocateFromHugePageEm(ptr noundef nonnull align 16 dereferenceable(2288) %this, i64 noundef %8)
  %tobool.not.i = icmp eq ptr %call5.i, null
  br i1 %tobool.not.i, label %if.end6.if.then7_crit_edge.i, label %if.end10.i

if.end6.if.then7_crit_edge.i:                     ; preds = %if.end6.i
  %.pre.i = load i64, ptr %kBlockSize.i, align 16
  br label %if.then7.i

if.then7.i:                                       ; preds = %if.end6.if.then7_crit_edge.i, %if.end.i
  %9 = phi i64 [ %.pre.i, %if.end6.if.then7_crit_edge.i ], [ %6, %if.end.i ]
  %call9.i = call noundef ptr @_ZN7rocksdb5Arena16AllocateNewBlockEm(ptr noundef nonnull align 16 dereferenceable(2288) %this, i64 noundef %9)
  br label %if.end10.i

if.end10.i:                                       ; preds = %if.then7.i, %if.end6.i
  %size.1.i = phi i64 [ %8, %if.end6.i ], [ %9, %if.then7.i ]
  %block_head.1.i = phi ptr [ %call5.i, %if.end6.i ], [ %call9.i, %if.then7.i ]
  %sub.i = sub i64 %size.1.i, %bytes
  store i64 %sub.i, ptr %alloc_bytes_remaining_, align 16
  %add.ptr.i = getelementptr inbounds i8, ptr %block_head.1.i, i64 %bytes
  store ptr %add.ptr.i, ptr %aligned_alloc_ptr_, align 8
  %add.ptr13.i = getelementptr inbounds i8, ptr %block_head.1.i, i64 %size.1.i
  %unaligned_alloc_ptr_.i = getelementptr inbounds i8, ptr %this, i64 2240
  store ptr %add.ptr13.i, ptr %unaligned_alloc_ptr_.i, align 16
  br label %return

return:                                           ; preds = %if.end10.i, %if.then.i, %if.then15, %if.then
  %retval.0 = phi ptr [ %call, %if.then ], [ %add.ptr, %if.then15 ], [ %call.i, %if.then.i ], [ %block_head.1.i, %if.end10.i ]
  ret ptr %retval.0
}